; ModuleID = '4/2082.c'
source_filename = "4/2082.c"
target datalayout = "e-m:e-p270:32:32-p271:32:32-p272:64:64-i64:64-f80:128-n8:16:32:64-S128"
target triple = "x86_64-pc-linux-gnu"

@.str = private unnamed_addr constant [6 x i8] c"%d %d\00", align 1
@.str.1 = private unnamed_addr constant [3 x i8] c"%d\00", align 1
@.str.2 = private unnamed_addr constant [4 x i8] c"%d\0A\00", align 1

; Function Attrs: noinline nounwind uwtable
define dso_local i32 @main() #0 {
  %1 = alloca i32, align 4
  %2 = alloca i32, align 4
  %3 = alloca i32, align 4
  %4 = alloca [120 x [120 x i32]], align 16
  %5 = alloca i32, align 4
  %6 = alloca i32, align 4
  %7 = alloca i32, align 4
  %8 = alloca i32, align 4
  %9 = alloca i32, align 4
  %10 = alloca i32, align 4
  store i32 0, i32* %1, align 4
  %11 = call i32 (i8*, ...) @__isoc99_scanf(i8* getelementptr inbounds ([6 x i8], [6 x i8]* @.str, i64 0, i64 0), i32* %2, i32* %3)
  store i32 0, i32* %5, align 4
  br label %12

12:                                               ; preds = %33, %0
  %13 = load i32, i32* %5, align 4
  %14 = load i32, i32* %2, align 4
  %15 = icmp slt i32 %13, %14
  br i1 %15, label %16, label %36

16:                                               ; preds = %12
  store i32 0, i32* %6, align 4
  br label %17

17:                                               ; preds = %29, %16
  %18 = load i32, i32* %6, align 4
  %19 = load i32, i32* %3, align 4
  %20 = icmp slt i32 %18, %19
  br i1 %20, label %21, label %32

21:                                               ; preds = %17
  %22 = load i32, i32* %5, align 4
  %23 = sext i32 %22 to i64
  %24 = getelementptr inbounds [120 x [120 x i32]], [120 x [120 x i32]]* %4, i64 0, i64 %23
  %25 = load i32, i32* %6, align 4
  %26 = sext i32 %25 to i64
  %27 = getelementptr inbounds [120 x i32], [120 x i32]* %24, i64 0, i64 %26
  %28 = call i32 (i8*, ...) @__isoc99_scanf(i8* getelementptr inbounds ([3 x i8], [3 x i8]* @.str.1, i64 0, i64 0), i32* %27)
  br label %29

29:                                               ; preds = %21
  %30 = load i32, i32* %6, align 4
  %31 = add nsw i32 %30, 1
  store i32 %31, i32* %6, align 4
  br label %17

32:                                               ; preds = %17
  br label %33

33:                                               ; preds = %32
  %34 = load i32, i32* %5, align 4
  %35 = add nsw i32 %34, 1
  store i32 %35, i32* %5, align 4
  br label %12

36:                                               ; preds = %12
  store i32 0, i32* %7, align 4
  br label %37

37:                                               ; preds = %92, %36
  %38 = load i32, i32* %7, align 4
  %39 = load i32, i32* %3, align 4
  %40 = load i32, i32* %2, align 4
  %41 = add nsw i32 %39, %40
  %42 = sub nsw i32 %41, 1
  %43 = icmp sle i32 %38, %42
  br i1 %43, label %44, label %95

44:                                               ; preds = %37
  %45 = load i32, i32* %7, align 4
  %46 = load i32, i32* %3, align 4
  %47 = icmp slt i32 %45, %46
  br i1 %47, label %48, label %49

48:                                               ; preds = %44
  store i32 0, i32* %8, align 4
  br label %54

49:                                               ; preds = %44
  %50 = load i32, i32* %7, align 4
  %51 = load i32, i32* %3, align 4
  %52 = sub nsw i32 %50, %51
  %53 = add nsw i32 %52, 1
  store i32 %53, i32* %8, align 4
  br label %54

54:                                               ; preds = %49, %48
  %55 = load i32, i32* %7, align 4
  %56 = load i32, i32* %2, align 4
  %57 = icmp slt i32 %55, %56
  br i1 %57, label %58, label %59

58:                                               ; preds = %54
  store i32 0, i32* %9, align 4
  br label %64

59:                                               ; preds = %54
  %60 = load i32, i32* %7, align 4
  %61 = load i32, i32* %2, align 4
  %62 = sub nsw i32 %60, %61
  %63 = add nsw i32 %62, 1
  store i32 %63, i32* %9, align 4
  br label %64

64:                                               ; preds = %59, %58
  %65 = load i32, i32* %8, align 4
  store i32 %65, i32* %10, align 4
  br label %66

66:                                               ; preds = %88, %64
  %67 = load i32, i32* %10, align 4
  %68 = load i32, i32* %7, align 4
  %69 = icmp sle i32 %67, %68
  br i1 %69, label %70, label %91

70:                                               ; preds = %66
  %71 = load i32, i32* %7, align 4
  %72 = load i32, i32* %10, align 4
  %73 = sub nsw i32 %71, %72
  %74 = load i32, i32* %9, align 4
  %75 = icmp sge i32 %73, %74
  br i1 %75, label %76, label %87

76:                                               ; preds = %70
  %77 = load i32, i32* %10, align 4
  %78 = sext i32 %77 to i64
  %79 = getelementptr inbounds [120 x [120 x i32]], [120 x [120 x i32]]* %4, i64 0, i64 %78
  %80 = load i32, i32* %7, align 4
  %81 = load i32, i32* %10, align 4
  %82 = sub nsw i32 %80, %81
  %83 = sext i32 %82 to i64
  %84 = getelementptr inbounds [120 x i32], [120 x i32]* %79, i64 0, i64 %83
  %85 = load i32, i32* %84, align 4
  %86 = call i32 (i8*, ...) @printf(i8* getelementptr inbounds ([4 x i8], [4 x i8]* @.str.2, i64 0, i64 0), i32 %85)
  br label %87

87:                                               ; preds = %76, %70
  br label %88

88:                                               ; preds = %87
  %89 = load i32, i32* %10, align 4
  %90 = add nsw i32 %89, 1
  store i32 %90, i32* %10, align 4
  br label %66

91:                                               ; preds = %66
  br label %92

92:                                               ; preds = %91
  %93 = load i32, i32* %7, align 4
  %94 = add nsw i32 %93, 1
  store i32 %94, i32* %7, align 4
  br label %37

95:                                               ; preds = %37
  ret i32 0
}

declare dso_local i32 @__isoc99_scanf(i8*, ...) #1

declare dso_local i32 @printf(i8*, ...) #1


!llvm.module.flags = !{!0}
!llvm.ident = !{!1}

!0 = !{i32 1, !"wchar_size", i32 4}
!1 = !{!"clang version 10.0.0-4ubuntu1 "}
